target datalayout = "e-m:e-p270:32:32-p271:32:32-p272:64:64-i64:64-i128:128-f80:128-n8:16:32:64-S128"
target triple = "x86_64-pc-linux-gnu"

@.str.1 = private unnamed_addr constant [2 x i8] c".\00", align 1

; Function Attrs: nounwind uwtable
define ptr @av_basename(ptr noundef %0) #0 {
  %2 = alloca ptr, align 8
  %3 = alloca ptr, align 8
  %4 = alloca ptr, align 8
  %5 = alloca i32, align 4
  store ptr %0, ptr %3, align 8, !tbaa !4
  call void @llvm.lifetime.start.p0(i64 8, ptr %4) #11
  %6 = load ptr, ptr %3, align 8, !tbaa !4
  %7 = icmp ne ptr %6, null
  br i1 %7, label %8, label %13

8:                                                ; preds = %1
  %9 = load ptr, ptr %3, align 8, !tbaa !4
  %10 = load i8, ptr %9, align 1, !tbaa !12
  %11 = sext i8 %10 to i32
  %12 = icmp eq i32 %11, 0
  br i1 %12, label %13, label %14

13:                                               ; preds = %8, %1
  store ptr @.str.1, ptr %2, align 8
  store i32 1, ptr %5, align 4
  br label %24

14:                                               ; preds = %8
  %15 = load ptr, ptr %3, align 8, !tbaa !4
  %16 = call ptr @strrchr(ptr noundef %15, i32 noundef 47) #12
  store ptr %16, ptr %4, align 8, !tbaa !4
  %17 = load ptr, ptr %4, align 8, !tbaa !4
  %18 = icmp ne ptr %17, null
  br i1 %18, label %21, label %19

19:                                               ; preds = %14
  %20 = load ptr, ptr %3, align 8, !tbaa !4
  store ptr %20, ptr %2, align 8
  store i32 1, ptr %5, align 4
  br label %24

21:                                               ; preds = %14
  %22 = load ptr, ptr %4, align 8, !tbaa !4
  %23 = getelementptr inbounds i8, ptr %22, i64 1
  store ptr %23, ptr %2, align 8
  store i32 1, ptr %5, align 4
  br label %24

24:                                               ; preds = %21, %19, %13
  call void @llvm.lifetime.end.p0(i64 8, ptr %4) #11
  %25 = load ptr, ptr %2, align 8
  ret ptr %25
}