; Function Attrs: mustprogress nofree norecurse nounwind willreturn memory(argmem: read) uwtable
define ptr @av_basename(ptr noundef readonly %0) local_unnamed_addr #12 {
  %.not = icmp eq ptr %0, null
  br i1 %.not, label %8, label %2

2:                                                ; preds = %1
  %3 = load i8, ptr %0, align 1, !tbaa !4
  %4 = icmp eq i8 %3, 0
  br i1 %4, label %8, label %5

5:                                                ; preds = %2
  %6 = tail call ptr @strrchr(ptr noundef nonnull dereferenceable(1) %0, i32 noundef 47) #18
  %.not9 = icmp eq ptr %6, null
  %7 = getelementptr inbounds nuw i8, ptr %6, i64 1
  %spec.select = select i1 %.not9, ptr %0, ptr %7
  br label %8

8:                                                ; preds = %5, %1, %2
  %.0 = phi ptr [ @.str.1, %2 ], [ @.str.1, %1 ], [ %spec.select, %5 ]
  ret ptr %.0
}